(dp1
S'qt4'
p2
ccopy_reg
_reconstructor
p3
(ctwisted.plugin
CachedDropin
p4
c__builtin__
object
p5
NtRp6
(dp7
S'moduleName'
p8
S'twisted.plugins.qt4'
p9
sS'description'
p10
NsS'plugins'
p11
(lp12
g3
(ctwisted.plugin
CachedPlugin
p13
g5
NtRp14
(dp15
S'provided'
p16
(lp17
ctwisted.plugin
IPlugin
p18
actwisted.application.reactors
IReactorInstaller
p19
asS'dropin'
p20
g6
sS'name'
p21
S'qt4'
p22
sg10
S'\n    @ivar moduleName: The fully-qualified Python name of the module of which\n    the install callable is an attribute.\n    '
p23
sbag3
(g13
g5
NtRp24
(dp25
g16
(lp26
g18
ag19
asg20
g6
sg21
S'qt4bad'
p27
sg10
g23
sbasbs.